target datalayout = "e-m:e-p270:32:32-p271:32:32-p272:64:64-i64:64-i128:128-f80:128-n8:16:32:64-S128"
target triple = "x86_64-pc-linux-gnu"

%struct.mbedtls_ecp_point = type { %struct.mbedtls_mpi, %struct.mbedtls_mpi, %struct.mbedtls_mpi }
%struct.mbedtls_mpi = type { ptr, i16, i16 }
%struct.mbedtls_ecp_group = type { i32, %struct.mbedtls_mpi, %struct.mbedtls_mpi, %struct.mbedtls_mpi, %struct.mbedtls_ecp_point, %struct.mbedtls_mpi, i64, i64, i32, ptr, ptr, ptr, ptr, ptr, i64 }
%struct.mbedtls_ecp_keypair = type { %struct.mbedtls_ecp_group, %struct.mbedtls_mpi, %struct.mbedtls_ecp_point }

; Function Attrs: nounwind uwtable
define internal i32 @ecdsa_signature_to_asn1(ptr noundef %0, ptr noundef %1, ptr noundef %2, i64 noundef %3, ptr noundef %4) #0 {
  %6 = alloca i32, align 4
  %7 = alloca ptr, align 8
  %8 = alloca ptr, align 8
  %9 = alloca ptr, align 8
  %10 = alloca i64, align 8
  %11 = alloca ptr, align 8
  %12 = alloca i32, align 4
  %13 = alloca [139 x i8], align 16
  %14 = alloca ptr, align 8
  %15 = alloca i64, align 8
  %16 = alloca i32, align 4
  store ptr %0, ptr %7, align 8, !tbaa !10
  store ptr %1, ptr %8, align 8, !tbaa !10
  store ptr %2, ptr %9, align 8, !tbaa !12
  store i64 %3, ptr %10, align 8, !tbaa !14
  store ptr %4, ptr %11, align 8, !tbaa !38
  call void @llvm.lifetime.start.p0(i64 4, ptr %12) #6
  store i32 -110, ptr %12, align 4, !tbaa !3
  call void @llvm.lifetime.start.p0(i64 139, ptr %13) #6
  call void @llvm.memset.p0.i64(ptr align 16 %13, i8 0, i64 139, i1 false)
  call void @llvm.lifetime.start.p0(i64 8, ptr %14) #6
  %17 = getelementptr inbounds [139 x i8], ptr %13, i64 0, i64 0
  %18 = getelementptr inbounds nuw i8, ptr %17, i64 139
  store ptr %18, ptr %14, align 8, !tbaa !12
  call void @llvm.lifetime.start.p0(i64 8, ptr %15) #6
  store i64 0, ptr %15, align 8, !tbaa !14
  br label %19

19:                                               ; preds = %5
  %20 = getelementptr inbounds [139 x i8], ptr %13, i64 0, i64 0
  %21 = load ptr, ptr %8, align 8, !tbaa !10
  %22 = call i32 @mbedtls_asn1_write_mpi(ptr noundef %14, ptr noundef %20, ptr noundef %21)
  store i32 %22, ptr %12, align 4, !tbaa !3
  %23 = icmp slt i32 %22, 0
  br i1 %23, label %24, label %26

24:                                               ; preds = %19
  %25 = load i32, ptr %12, align 4, !tbaa !3
  store i32 %25, ptr %6, align 4
  store i32 1, ptr %16, align 4
  br label %88

26:                                               ; preds = %19
  %27 = load i32, ptr %12, align 4, !tbaa !3
  %28 = sext i32 %27 to i64
  %29 = load i64, ptr %15, align 8, !tbaa !14
  %30 = add i64 %29, %28
  store i64 %30, ptr %15, align 8, !tbaa !14
  br label %31

31:                                               ; preds = %26
  br label %32

32:                                               ; preds = %31
  br label %33

33:                                               ; preds = %32
  br label %34

34:                                               ; preds = %33
  %35 = getelementptr inbounds [139 x i8], ptr %13, i64 0, i64 0
  %36 = load ptr, ptr %7, align 8, !tbaa !10
  %37 = call i32 @mbedtls_asn1_write_mpi(ptr noundef %14, ptr noundef %35, ptr noundef %36)
  store i32 %37, ptr %12, align 4, !tbaa !3
  %38 = icmp slt i32 %37, 0
  br i1 %38, label %39, label %41

39:                                               ; preds = %34
  %40 = load i32, ptr %12, align 4, !tbaa !3
  store i32 %40, ptr %6, align 4
  store i32 1, ptr %16, align 4
  br label %88

41:                                               ; preds = %34
  %42 = load i32, ptr %12, align 4, !tbaa !3
  %43 = sext i32 %42 to i64
  %44 = load i64, ptr %15, align 8, !tbaa !14
  %45 = add i64 %44, %43
  store i64 %45, ptr %15, align 8, !tbaa !14
  br label %46

46:                                               ; preds = %41
  br label %47

47:                                               ; preds = %46
  br label %48

48:                                               ; preds = %47
  br label %49

49:                                               ; preds = %48
  %50 = getelementptr inbounds [139 x i8], ptr %13, i64 0, i64 0
  %51 = load i64, ptr %15, align 8, !tbaa !14
  %52 = call i32 @mbedtls_asn1_write_len(ptr noundef %14, ptr noundef %50, i64 noundef %51)
  store i32 %52, ptr %12, align 4, !tbaa !3
  %53 = icmp slt i32 %52, 0
  br i1 %53, label %54, label %56

54:                                               ; preds = %49
  %55 = load i32, ptr %12, align 4, !tbaa !3
  store i32 %55, ptr %6, align 4
  store i32 1, ptr %16, align 4
  br label %88

56:                                               ; preds = %49
  %57 = load i32, ptr %12, align 4, !tbaa !3
  %58 = sext i32 %57 to i64
  %59 = load i64, ptr %15, align 8, !tbaa !14
  %60 = add i64 %59, %58
  store i64 %60, ptr %15, align 8, !tbaa !14
  br label %61

61:                                               ; preds = %56
  br label %62

62:                                               ; preds = %61
  br label %63

63:                                               ; preds = %62
  br label %64

64:                                               ; preds = %63
  %65 = getelementptr inbounds [139 x i8], ptr %13, i64 0, i64 0
  %66 = call i32 @mbedtls_asn1_write_tag(ptr noundef %14, ptr noundef %65, i8 noundef zeroext 48)
  store i32 %66, ptr %12, align 4, !tbaa !3
  %67 = icmp slt i32 %66, 0
  br i1 %67, label %68, label %70

68:                                               ; preds = %64
  %69 = load i32, ptr %12, align 4, !tbaa !3
  store i32 %69, ptr %6, align 4
  store i32 1, ptr %16, align 4
  br label %88

70:                                               ; preds = %64
  %71 = load i32, ptr %12, align 4, !tbaa !3
  %72 = sext i32 %71 to i64
  %73 = load i64, ptr %15, align 8, !tbaa !14
  %74 = add i64 %73, %72
  store i64 %74, ptr %15, align 8, !tbaa !14
  br label %75

75:                                               ; preds = %70
  br label %76

76:                                               ; preds = %75
  br label %77

77:                                               ; preds = %76
  %78 = load i64, ptr %15, align 8, !tbaa !14
  %79 = load i64, ptr %10, align 8, !tbaa !14
  %80 = icmp ugt i64 %78, %79
  br i1 %80, label %81, label %82

81:                                               ; preds = %77
  store i32 -20224, ptr %6, align 4
  store i32 1, ptr %16, align 4
  br label %88

82:                                               ; preds = %77
  %83 = load ptr, ptr %9, align 8, !tbaa !12
  %84 = load ptr, ptr %14, align 8, !tbaa !12
  %85 = load i64, ptr %15, align 8, !tbaa !14
  call void @llvm.memcpy.p0.p0.i64(ptr align 1 %83, ptr align 1 %84, i64 %85, i1 false)
  %86 = load i64, ptr %15, align 8, !tbaa !14
  %87 = load ptr, ptr %11, align 8, !tbaa !38
  store i64 %86, ptr %87, align 8, !tbaa !14
  store i32 0, ptr %6, align 4
  store i32 1, ptr %16, align 4
  br label %88

88:                                               ; preds = %82, %81, %68, %54, %39, %24
  call void @llvm.lifetime.end.p0(i64 8, ptr %15) #6
  call void @llvm.lifetime.end.p0(i64 8, ptr %14) #6
  call void @llvm.lifetime.end.p0(i64 139, ptr %13) #6
  call void @llvm.lifetime.end.p0(i64 4, ptr %12) #6
  %89 = load i32, ptr %6, align 4
  ret i32 %89
}

; Function Attrs: nounwind uwtable
define hidden i32 @mbedtls_ecdsa_write_signature_restartable(ptr noundef %0, i32 noundef %1, ptr noundef %2, i64 noundef %3, ptr noundef %4, i64 noundef %5, ptr noundef %6, ptr noundef %7, ptr noundef %8, ptr noundef %9) #0 {
  %11 = alloca i32, align 4
  %12 = alloca ptr, align 8
  %13 = alloca i32, align 4
  %14 = alloca ptr, align 8
  %15 = alloca i64, align 8
  %16 = alloca ptr, align 8
  %17 = alloca i64, align 8
  %18 = alloca ptr, align 8
  %19 = alloca ptr, align 8
  %20 = alloca ptr, align 8
  %21 = alloca ptr, align 8
  %22 = alloca i32, align 4
  %23 = alloca %struct.mbedtls_mpi, align 8
  %24 = alloca %struct.mbedtls_mpi, align 8
  %25 = alloca i32, align 4
  store ptr %0, ptr %12, align 8, !tbaa !36
  store i32 %1, ptr %13, align 4, !tbaa !3
  store ptr %2, ptr %14, align 8, !tbaa !12
  store i64 %3, ptr %15, align 8, !tbaa !14
  store ptr %4, ptr %16, align 8, !tbaa !12
  store i64 %5, ptr %17, align 8, !tbaa !14
  store ptr %6, ptr %18, align 8, !tbaa !38
  store ptr %7, ptr %19, align 8, !tbaa !16
  store ptr %8, ptr %20, align 8, !tbaa !16
  store ptr %9, ptr %21, align 8, !tbaa !16
  call void @llvm.lifetime.start.p0(i64 4, ptr %22) #6
  store i32 -110, ptr %22, align 4, !tbaa !3
  call void @llvm.lifetime.start.p0(i64 16, ptr %23) #6
  call void @llvm.lifetime.start.p0(i64 16, ptr %24) #6
  %26 = load ptr, ptr %19, align 8, !tbaa !16
  %27 = icmp eq ptr %26, null
  br i1 %27, label %28, label %29

28:                                               ; preds = %10
  store i32 -20352, ptr %11, align 4
  store i32 1, ptr %25, align 4
  br label %59

29:                                               ; preds = %10
  call void @mbedtls_mpi_init(ptr noundef %23)
  call void @mbedtls_mpi_init(ptr noundef %24)
  br label %30

30:                                               ; preds = %29
  %31 = load ptr, ptr %12, align 8, !tbaa !36
  %32 = getelementptr inbounds nuw %struct.mbedtls_ecp_keypair, ptr %31, i32 0, i32 0
  %33 = load ptr, ptr %12, align 8, !tbaa !36
  %34 = getelementptr inbounds nuw %struct.mbedtls_ecp_keypair, ptr %33, i32 0, i32 1
  %35 = load ptr, ptr %14, align 8, !tbaa !12
  %36 = load i64, ptr %15, align 8, !tbaa !14
  %37 = load i32, ptr %13, align 4, !tbaa !3
  %38 = load ptr, ptr %19, align 8, !tbaa !16
  %39 = load ptr, ptr %20, align 8, !tbaa !16
  %40 = load ptr, ptr %21, align 8, !tbaa !16
  %41 = call i32 @mbedtls_ecdsa_sign_det_restartable(ptr noundef %32, ptr noundef %23, ptr noundef %24, ptr noundef %34, ptr noundef %35, i64 noundef %36, i32 noundef %37, ptr noundef %38, ptr noundef %39, ptr noundef %40)
  store i32 %41, ptr %22, align 4, !tbaa !3
  %42 = icmp ne i32 %41, 0
  br i1 %42, label %43, label %44

43:                                               ; preds = %30
  br label %57

44:                                               ; preds = %30
  br label %45

45:                                               ; preds = %44
  br label %46

46:                                               ; preds = %45
  br label %47

47:                                               ; preds = %46
  %48 = load ptr, ptr %16, align 8, !tbaa !12
  %49 = load i64, ptr %17, align 8, !tbaa !14
  %50 = load ptr, ptr %18, align 8, !tbaa !38
  %51 = call i32 @ecdsa_signature_to_asn1(ptr noundef %23, ptr noundef %24, ptr noundef %48, i64 noundef %49, ptr noundef %50)
  store i32 %51, ptr %22, align 4, !tbaa !3
  %52 = icmp ne i32 %51, 0
  br i1 %52, label %53, label %54

53:                                               ; preds = %47
  br label %57

54:                                               ; preds = %47
  br label %55

55:                                               ; preds = %54
  br label %56

56:                                               ; preds = %55
  br label %57

57:                                               ; preds = %56, %53, %43
  call void @mbedtls_mpi_free(ptr noundef %23)
  call void @mbedtls_mpi_free(ptr noundef %24)
  %58 = load i32, ptr %22, align 4, !tbaa !3
  store i32 %58, ptr %11, align 4
  store i32 1, ptr %25, align 4
  br label %59

59:                                               ; preds = %57, %28
  call void @llvm.lifetime.end.p0(i64 16, ptr %24) #6
  call void @llvm.lifetime.end.p0(i64 16, ptr %23) #6
  call void @llvm.lifetime.end.p0(i64 4, ptr %22) #6
  %60 = load i32, ptr %11, align 4
  ret i32 %60
}