; Function Attrs: nounwind uwtable
define hidden i32 @mbedtls_ecdsa_write_signature_restartable(ptr noundef %0, i32 noundef %1, ptr noundef %2, i64 noundef %3, ptr noundef writeonly captures(none) %4, i64 noundef %5, ptr noundef writeonly captures(none) %6, ptr noundef %7, ptr noundef %8, ptr readnone captures(none) %9) local_unnamed_addr #1 {
  %11 = alloca [139 x i8], align 16
  %12 = alloca ptr, align 8
  %13 = alloca %struct.mbedtls_mpi, align 8
  %14 = alloca %struct.mbedtls_mpi, align 8
  call void @llvm.lifetime.start.p0(i64 16, ptr nonnull %13) #7
  call void @llvm.lifetime.start.p0(i64 16, ptr nonnull %14) #7
  %15 = icmp eq ptr %7, null
  br i1 %15, label %42, label %16

16:                                               ; preds = %10
  call void @mbedtls_mpi_init(ptr noundef nonnull %13) #7
  call void @mbedtls_mpi_init(ptr noundef nonnull %14) #7
  %17 = getelementptr inbounds nuw i8, ptr %0, i64 192
  %18 = call i32 @mbedtls_ecdsa_sign_det_restartable(ptr noundef %0, ptr noundef nonnull %13, ptr noundef nonnull %14, ptr noundef nonnull %17, ptr noundef %2, i64 noundef %3, i32 noundef %1, ptr noundef nonnull %7, ptr noundef %8, ptr poison)
  %.not = icmp eq i32 %18, 0
  br i1 %.not, label %19, label %41

19:                                               ; preds = %16
  call void @llvm.lifetime.start.p0(i64 139, ptr nonnull %11) #7
  call void @llvm.memset.p0.i64(ptr noundef nonnull align 16 dereferenceable(139) %11, i8 0, i64 139, i1 false)
  call void @llvm.lifetime.start.p0(i64 8, ptr nonnull %12) #7
  %20 = getelementptr inbounds nuw i8, ptr %11, i64 139
  store ptr %20, ptr %12, align 8, !tbaa !20
  %21 = call i32 @mbedtls_asn1_write_mpi(ptr noundef nonnull %12, ptr noundef nonnull %11, ptr noundef nonnull %14) #7
  %22 = icmp slt i32 %21, 0
  br i1 %22, label %ecdsa_signature_to_asn1.exit, label %23

23:                                               ; preds = %19
  %24 = call i32 @mbedtls_asn1_write_mpi(ptr noundef nonnull %12, ptr noundef nonnull %11, ptr noundef nonnull %13) #7
  %25 = icmp slt i32 %24, 0
  br i1 %25, label %ecdsa_signature_to_asn1.exit, label %26

26:                                               ; preds = %23
  %narrow.i = add nuw i32 %24, %21
  %27 = zext i32 %narrow.i to i64
  %28 = call i32 @mbedtls_asn1_write_len(ptr noundef nonnull %12, ptr noundef nonnull %11, i64 noundef %27) #7
  %29 = icmp slt i32 %28, 0
  br i1 %29, label %ecdsa_signature_to_asn1.exit, label %30

30:                                               ; preds = %26
  %31 = call i32 @mbedtls_asn1_write_tag(ptr noundef nonnull %12, ptr noundef nonnull %11, i8 noundef zeroext 48) #7
  %32 = icmp slt i32 %31, 0
  br i1 %32, label %ecdsa_signature_to_asn1.exit, label %33

33:                                               ; preds = %30
  %34 = zext nneg i32 %28 to i64
  %35 = add nuw nsw i64 %34, %27
  %36 = zext nneg i32 %31 to i64
  %37 = add nuw nsw i64 %35, %36
  %38 = icmp ugt i64 %37, %5
  br i1 %38, label %ecdsa_signature_to_asn1.exit, label %39

39:                                               ; preds = %33
  %40 = load ptr, ptr %12, align 8, !tbaa !20
  call void @llvm.memcpy.p0.p0.i64(ptr align 1 %4, ptr align 1 %40, i64 %37, i1 false)
  store i64 %37, ptr %6, align 8, !tbaa !22
  br label %ecdsa_signature_to_asn1.exit

ecdsa_signature_to_asn1.exit:                     ; preds = %19, %23, %26, %30, %33, %39
  %.0.i = phi i32 [ 0, %39 ], [ %21, %19 ], [ %24, %23 ], [ %28, %26 ], [ %31, %30 ], [ -20224, %33 ]
  call void @llvm.lifetime.end.p0(i64 8, ptr nonnull %12) #7
  call void @llvm.lifetime.end.p0(i64 139, ptr nonnull %11) #7
  br label %41

41:                                               ; preds = %ecdsa_signature_to_asn1.exit, %16
  %.0 = phi i32 [ %18, %16 ], [ %.0.i, %ecdsa_signature_to_asn1.exit ]
  call void @mbedtls_mpi_free(ptr noundef nonnull %13) #7
  call void @mbedtls_mpi_free(ptr noundef nonnull %14) #7
  br label %42

42:                                               ; preds = %10, %41
  %.013 = phi i32 [ %.0, %41 ], [ -20352, %10 ]
  call void @llvm.lifetime.end.p0(i64 16, ptr nonnull %14) #7
  call void @llvm.lifetime.end.p0(i64 16, ptr nonnull %13) #7
  ret i32 %.013
}